; Function Attrs: mustprogress nofree norecurse nosync nounwind willreturn memory(read, inaccessiblemem: none) uwtable
define hidden noundef zeroext i1 @_ZN17ContinuationEntry19is_interpreted_callEPh(ptr noundef readnone %0) local_unnamed_addr #1 align 2 {
  %2 = load ptr, ptr @_ZN17ContinuationEntry14_enter_specialE, align 8
  %3 = getelementptr inbounds i8, ptr %2, i64 36
  %4 = load i32, ptr %3, align 4
  %5 = sext i32 %4 to i64
  %6 = getelementptr inbounds i8, ptr %2, i64 %5
  %7 = getelementptr inbounds i8, ptr %2, i64 146
  %8 = load i16, ptr %7, align 2
  %9 = zext i16 %8 to i64
  %10 = getelementptr inbounds i8, ptr %6, i64 %9
  %11 = icmp ugt ptr %10, %0
  ret i1 %11
}